; Function Attrs: mustprogress uwtable
define hidden void @_ZN4lean13mk_llnf_cnstrERKNS_4nameEjjj(ptr dead_on_unwind noalias writable sret(%"class.lean::expr") align 8 %0, ptr noundef nonnull align 8 dereferenceable(8) %1, i32 noundef %2, i32 noundef %3, i32 noundef %4) local_unnamed_addr #0 personality ptr @__gxx_personality_v0 {
  %6 = alloca %"class.lean::list_ref.61", align 8
  %7 = alloca %"class.lean::name", align 8
  %8 = alloca %"class.lean::name", align 8
  %9 = alloca %"class.lean::name", align 8
  %10 = alloca %"class.lean::name", align 8
  call void @llvm.lifetime.start.p0(i64 8, ptr nonnull %7) #19
  call void @llvm.lifetime.start.p0(i64 8, ptr nonnull %8) #19
  call void @llvm.lifetime.start.p0(i64 8, ptr nonnull %9) #19
  call void @llvm.lifetime.start.p0(i64 8, ptr nonnull %10) #19
  call void @_ZN4lean4nameC1ERKS0_PKc(ptr noundef nonnull align 8 dereferenceable(8) %10, ptr noundef nonnull align 8 dereferenceable(8) %1, ptr noundef nonnull @.str.20)
  invoke void @_ZN4lean4nameC1ERKS0_j(ptr noundef nonnull align 8 dereferenceable(8) %9, ptr noundef nonnull align 8 dereferenceable(8) %10, i32 noundef %2)
          to label %11 unwind label %81

11:                                               ; preds = %5
  invoke void @_ZN4lean4nameC1ERKS0_j(ptr noundef nonnull align 8 dereferenceable(8) %8, ptr noundef nonnull align 8 dereferenceable(8) %9, i32 noundef %3)
          to label %12 unwind label %83

12:                                               ; preds = %11
  invoke void @_ZN4lean4nameC1ERKS0_j(ptr noundef nonnull align 8 dereferenceable(8) %7, ptr noundef nonnull align 8 dereferenceable(8) %8, i32 noundef %4)
          to label %13 unwind label %85

13:                                               ; preds = %12
  call void @llvm.lifetime.start.p0(i64 8, ptr nonnull %6) #19, !noalias !14
  store ptr inttoptr (i64 1 to ptr), ptr %6, align 8, !tbaa !8, !noalias !14
  invoke void @_ZN4lean8mk_constERKNS_4nameERKNS_8list_refINS_5levelEEE(ptr dead_on_unwind writable sret(%"class.lean::expr") align 8 %0, ptr noundef nonnull align 8 dereferenceable(8) %7, ptr noundef nonnull align 8 dereferenceable(8) %6)
          to label %_ZN4lean11mk_constantERKNS_4nameERKNS_8list_refINS_5levelEEE.exit.i unwind label %.body

_ZN4lean11mk_constantERKNS_4nameERKNS_8list_refINS_5levelEEE.exit.i: ; preds = %13
  %14 = load ptr, ptr %6, align 8, !tbaa !8, !noalias !14
  %15 = ptrtoint ptr %14 to i64
  %16 = and i64 %15, 1
  %.not.i.i.i = icmp eq i64 %16, 0
  br i1 %.not.i.i.i, label %17, label %28

17:                                               ; preds = %_ZN4lean11mk_constantERKNS_4nameERKNS_8list_refINS_5levelEEE.exit.i
  %18 = load i32, ptr %14, align 4, !tbaa !10
  %19 = icmp sgt i32 %18, 1
  br i1 %19, label %20, label %22, !prof !13

20:                                               ; preds = %17
  %21 = add nsw i32 %18, -1
  store i32 %21, ptr %14, align 4, !tbaa !10
  br label %28

22:                                               ; preds = %17
  %.not.i.i.i.i = icmp eq i32 %18, 0
  br i1 %.not.i.i.i.i, label %28, label %23

23:                                               ; preds = %22
  invoke void @lean_dec_ref_cold(ptr noundef nonnull %14)
          to label %28 unwind label %24

24:                                               ; preds = %23
  %25 = landingpad { ptr, i32 }
          catch ptr null
  %26 = extractvalue { ptr, i32 } %25, 0
  call void @__clang_call_terminate(ptr %26) #20
  unreachable

.body:                                            ; preds = %13
  %27 = landingpad { ptr, i32 }
          cleanup
  call void @_ZN4lean10object_refD2Ev(ptr noundef nonnull align 8 dereferenceable(8) %6) #19
  call void @llvm.lifetime.end.p0(i64 8, ptr nonnull %6) #19, !noalias !14
  call void @_ZN4lean10object_refD2Ev(ptr noundef nonnull align 8 dereferenceable(8) %7) #19
  br label %87

28:                                               ; preds = %23, %22, %20, %_ZN4lean11mk_constantERKNS_4nameERKNS_8list_refINS_5levelEEE.exit.i
  call void @llvm.lifetime.end.p0(i64 8, ptr nonnull %6) #19, !noalias !14
  %29 = load ptr, ptr %7, align 8, !tbaa !8
  %30 = ptrtoint ptr %29 to i64
  %31 = and i64 %30, 1
  %.not.i.i = icmp eq i64 %31, 0
  br i1 %.not.i.i, label %32, label %_ZN4lean10object_refD2Ev.exit

32:                                               ; preds = %28
  %33 = load i32, ptr %29, align 4, !tbaa !10
  %34 = icmp sgt i32 %33, 1
  br i1 %34, label %35, label %37, !prof !13

35:                                               ; preds = %32
  %36 = add nsw i32 %33, -1
  store i32 %36, ptr %29, align 4, !tbaa !10
  br label %_ZN4lean10object_refD2Ev.exit

37:                                               ; preds = %32
  %.not.i.i.i11 = icmp eq i32 %33, 0
  br i1 %.not.i.i.i11, label %_ZN4lean10object_refD2Ev.exit, label %38

38:                                               ; preds = %37
  invoke void @lean_dec_ref_cold(ptr noundef nonnull %29)
          to label %_ZN4lean10object_refD2Ev.exit unwind label %39

39:                                               ; preds = %38
  %40 = landingpad { ptr, i32 }
          catch ptr null
  %41 = extractvalue { ptr, i32 } %40, 0
  call void @__clang_call_terminate(ptr %41) #20
  unreachable

_ZN4lean10object_refD2Ev.exit:                    ; preds = %28, %35, %37, %38
  %42 = load ptr, ptr %8, align 8, !tbaa !8
  %43 = ptrtoint ptr %42 to i64
  %44 = and i64 %43, 1
  %.not.i.i12 = icmp eq i64 %44, 0
  br i1 %.not.i.i12, label %45, label %_ZN4lean10object_refD2Ev.exit14

45:                                               ; preds = %_ZN4lean10object_refD2Ev.exit
  %46 = load i32, ptr %42, align 4, !tbaa !10
  %47 = icmp sgt i32 %46, 1
  br i1 %47, label %48, label %50, !prof !13

48:                                               ; preds = %45
  %49 = add nsw i32 %46, -1
  store i32 %49, ptr %42, align 4, !tbaa !10
  br label %_ZN4lean10object_refD2Ev.exit14

50:                                               ; preds = %45
  %.not.i.i.i13 = icmp eq i32 %46, 0
  br i1 %.not.i.i.i13, label %_ZN4lean10object_refD2Ev.exit14, label %51

51:                                               ; preds = %50
  invoke void @lean_dec_ref_cold(ptr noundef nonnull %42)
          to label %_ZN4lean10object_refD2Ev.exit14 unwind label %52

52:                                               ; preds = %51
  %53 = landingpad { ptr, i32 }
          catch ptr null
  %54 = extractvalue { ptr, i32 } %53, 0
  call void @__clang_call_terminate(ptr %54) #20
  unreachable

_ZN4lean10object_refD2Ev.exit14:                  ; preds = %_ZN4lean10object_refD2Ev.exit, %48, %50, %51
  %55 = load ptr, ptr %9, align 8, !tbaa !8
  %56 = ptrtoint ptr %55 to i64
  %57 = and i64 %56, 1
  %.not.i.i15 = icmp eq i64 %57, 0
  br i1 %.not.i.i15, label %58, label %_ZN4lean10object_refD2Ev.exit17

58:                                               ; preds = %_ZN4lean10object_refD2Ev.exit14
  %59 = load i32, ptr %55, align 4, !tbaa !10
  %60 = icmp sgt i32 %59, 1
  br i1 %60, label %61, label %63, !prof !13

61:                                               ; preds = %58
  %62 = add nsw i32 %59, -1
  store i32 %62, ptr %55, align 4, !tbaa !10
  br label %_ZN4lean10object_refD2Ev.exit17

63:                                               ; preds = %58
  %.not.i.i.i16 = icmp eq i32 %59, 0
  br i1 %.not.i.i.i16, label %_ZN4lean10object_refD2Ev.exit17, label %64

64:                                               ; preds = %63
  invoke void @lean_dec_ref_cold(ptr noundef nonnull %55)
          to label %_ZN4lean10object_refD2Ev.exit17 unwind label %65

65:                                               ; preds = %64
  %66 = landingpad { ptr, i32 }
          catch ptr null
  %67 = extractvalue { ptr, i32 } %66, 0
  call void @__clang_call_terminate(ptr %67) #20
  unreachable

_ZN4lean10object_refD2Ev.exit17:                  ; preds = %_ZN4lean10object_refD2Ev.exit14, %61, %63, %64
  %68 = load ptr, ptr %10, align 8, !tbaa !8
  %69 = ptrtoint ptr %68 to i64
  %70 = and i64 %69, 1
  %.not.i.i18 = icmp eq i64 %70, 0
  br i1 %.not.i.i18, label %71, label %_ZN4lean10object_refD2Ev.exit20

71:                                               ; preds = %_ZN4lean10object_refD2Ev.exit17
  %72 = load i32, ptr %68, align 4, !tbaa !10
  %73 = icmp sgt i32 %72, 1
  br i1 %73, label %74, label %76, !prof !13

74:                                               ; preds = %71
  %75 = add nsw i32 %72, -1
  store i32 %75, ptr %68, align 4, !tbaa !10
  br label %_ZN4lean10object_refD2Ev.exit20

76:                                               ; preds = %71
  %.not.i.i.i19 = icmp eq i32 %72, 0
  br i1 %.not.i.i.i19, label %_ZN4lean10object_refD2Ev.exit20, label %77

77:                                               ; preds = %76
  invoke void @lean_dec_ref_cold(ptr noundef nonnull %68)
          to label %_ZN4lean10object_refD2Ev.exit20 unwind label %78

78:                                               ; preds = %77
  %79 = landingpad { ptr, i32 }
          catch ptr null
  %80 = extractvalue { ptr, i32 } %79, 0
  call void @__clang_call_terminate(ptr %80) #20
  unreachable

_ZN4lean10object_refD2Ev.exit20:                  ; preds = %_ZN4lean10object_refD2Ev.exit17, %74, %76, %77
  call void @llvm.lifetime.end.p0(i64 8, ptr nonnull %10) #19
  call void @llvm.lifetime.end.p0(i64 8, ptr nonnull %9) #19
  call void @llvm.lifetime.end.p0(i64 8, ptr nonnull %8) #19
  call void @llvm.lifetime.end.p0(i64 8, ptr nonnull %7) #19
  ret void

81:                                               ; preds = %5
  %82 = landingpad { ptr, i32 }
          cleanup
  br label %89

83:                                               ; preds = %11
  %84 = landingpad { ptr, i32 }
          cleanup
  br label %88

85:                                               ; preds = %12
  %86 = landingpad { ptr, i32 }
          cleanup
  br label %87

87:                                               ; preds = %.body, %85
  %.pn = phi { ptr, i32 } [ %27, %.body ], [ %86, %85 ]
  call void @_ZN4lean10object_refD2Ev(ptr noundef nonnull align 8 dereferenceable(8) %8) #19
  br label %88

88:                                               ; preds = %87, %83
  %.pn.pn = phi { ptr, i32 } [ %.pn, %87 ], [ %84, %83 ]
  call void @_ZN4lean10object_refD2Ev(ptr noundef nonnull align 8 dereferenceable(8) %9) #19
  br label %89

89:                                               ; preds = %88, %81
  %.pn.pn.pn = phi { ptr, i32 } [ %.pn.pn, %88 ], [ %82, %81 ]
  call void @_ZN4lean10object_refD2Ev(ptr noundef nonnull align 8 dereferenceable(8) %10) #19
  call void @llvm.lifetime.end.p0(i64 8, ptr nonnull %10) #19
  call void @llvm.lifetime.end.p0(i64 8, ptr nonnull %9) #19
  call void @llvm.lifetime.end.p0(i64 8, ptr nonnull %8) #19
  call void @llvm.lifetime.end.p0(i64 8, ptr nonnull %7) #19
  resume { ptr, i32 } %.pn.pn.pn
}